target datalayout = "e-m:e-p270:32:32-p271:32:32-p272:64:64-i64:64-i128:128-f80:128-n8:16:32:64-S128"
target triple = "x86_64-pc-linux-gnu"

%struct._lv_fs_drv_t = type { i8, i32, ptr, ptr, ptr, ptr, ptr, ptr, ptr, ptr, ptr, ptr, ptr }
%struct.lv_fs_file_t = type { ptr, ptr, ptr }
%struct._lv_fs_file_cache_t = type { i32, i32, i32, ptr }

; Function Attrs: nounwind uwtable
define internal i32 @lv_fs_seek_cached(ptr noundef %0, i32 noundef %1, i32 noundef %2) #0 {
  %4 = alloca ptr, align 8
  %5 = alloca i32, align 4
  %6 = alloca i32, align 4
  %7 = alloca i32, align 4
  %8 = alloca i32, align 4
  store ptr %0, ptr %4, align 8, !tbaa !6
  store i32 %1, ptr %5, align 4, !tbaa !14
  store i32 %2, ptr %6, align 4, !tbaa !14
  call void @llvm.lifetime.start.p0(i64 4, ptr %7) #4
  store i32 0, ptr %7, align 4, !tbaa !14
  %9 = load i32, ptr %6, align 4, !tbaa !14
  switch i32 %9, label %64 [
    i32 0, label %10
    i32 1, label %16
    i32 2, label %24
  ]

10:                                               ; preds = %3
  %11 = load i32, ptr %5, align 4, !tbaa !14
  %12 = load ptr, ptr %4, align 8, !tbaa !6
  %13 = getelementptr inbounds nuw %struct.lv_fs_file_t, ptr %12, i32 0, i32 2
  %14 = load ptr, ptr %13, align 8, !tbaa !23
  %15 = getelementptr inbounds nuw %struct._lv_fs_file_cache_t, ptr %14, i32 0, i32 2
  store i32 %11, ptr %15, align 8, !tbaa !29
  br label %64

16:                                               ; preds = %3
  %17 = load i32, ptr %5, align 4, !tbaa !14
  %18 = load ptr, ptr %4, align 8, !tbaa !6
  %19 = getelementptr inbounds nuw %struct.lv_fs_file_t, ptr %18, i32 0, i32 2
  %20 = load ptr, ptr %19, align 8, !tbaa !23
  %21 = getelementptr inbounds nuw %struct._lv_fs_file_cache_t, ptr %20, i32 0, i32 2
  %22 = load i32, ptr %21, align 8, !tbaa !29
  %23 = add i32 %22, %17
  store i32 %23, ptr %21, align 8, !tbaa !29
  br label %64

24:                                               ; preds = %3
  %25 = load ptr, ptr %4, align 8, !tbaa !6
  %26 = getelementptr inbounds nuw %struct.lv_fs_file_t, ptr %25, i32 0, i32 1
  %27 = load ptr, ptr %26, align 8, !tbaa !18
  %28 = getelementptr inbounds nuw %struct._lv_fs_drv_t, ptr %27, i32 0, i32 7
  %29 = load ptr, ptr %28, align 8, !tbaa !34
  %30 = load ptr, ptr %4, align 8, !tbaa !6
  %31 = getelementptr inbounds nuw %struct.lv_fs_file_t, ptr %30, i32 0, i32 1
  %32 = load ptr, ptr %31, align 8, !tbaa !18
  %33 = load ptr, ptr %4, align 8, !tbaa !6
  %34 = getelementptr inbounds nuw %struct.lv_fs_file_t, ptr %33, i32 0, i32 0
  %35 = load ptr, ptr %34, align 8, !tbaa !21
  %36 = load i32, ptr %5, align 4, !tbaa !14
  %37 = load i32, ptr %6, align 4, !tbaa !14
  %38 = call i32 %29(ptr noundef %32, ptr noundef %35, i32 noundef %36, i32 noundef %37)
  store i32 %38, ptr %7, align 4, !tbaa !14
  %39 = load i32, ptr %7, align 4, !tbaa !14
  %40 = icmp eq i32 %39, 0
  br i1 %40, label %41, label %63

41:                                               ; preds = %24
  call void @llvm.lifetime.start.p0(i64 4, ptr %8) #4
  %42 = load ptr, ptr %4, align 8, !tbaa !6
  %43 = getelementptr inbounds nuw %struct.lv_fs_file_t, ptr %42, i32 0, i32 1
  %44 = load ptr, ptr %43, align 8, !tbaa !18
  %45 = getelementptr inbounds nuw %struct._lv_fs_drv_t, ptr %44, i32 0, i32 8
  %46 = load ptr, ptr %45, align 8, !tbaa !38
  %47 = load ptr, ptr %4, align 8, !tbaa !6
  %48 = getelementptr inbounds nuw %struct.lv_fs_file_t, ptr %47, i32 0, i32 1
  %49 = load ptr, ptr %48, align 8, !tbaa !18
  %50 = load ptr, ptr %4, align 8, !tbaa !6
  %51 = getelementptr inbounds nuw %struct.lv_fs_file_t, ptr %50, i32 0, i32 0
  %52 = load ptr, ptr %51, align 8, !tbaa !21
  %53 = call i32 %46(ptr noundef %49, ptr noundef %52, ptr noundef %8)
  store i32 %53, ptr %7, align 4, !tbaa !14
  %54 = load i32, ptr %7, align 4, !tbaa !14
  %55 = icmp eq i32 %54, 0
  br i1 %55, label %56, label %62

56:                                               ; preds = %41
  %57 = load i32, ptr %8, align 4, !tbaa !14
  %58 = load ptr, ptr %4, align 8, !tbaa !6
  %59 = getelementptr inbounds nuw %struct.lv_fs_file_t, ptr %58, i32 0, i32 2
  %60 = load ptr, ptr %59, align 8, !tbaa !23
  %61 = getelementptr inbounds nuw %struct._lv_fs_file_cache_t, ptr %60, i32 0, i32 2
  store i32 %57, ptr %61, align 8, !tbaa !29
  br label %62

62:                                               ; preds = %56, %41
  call void @llvm.lifetime.end.p0(i64 4, ptr %8) #4
  br label %63

63:                                               ; preds = %62, %24
  br label %64

64:                                               ; preds = %3, %63, %16, %10
  %65 = load i32, ptr %7, align 4, !tbaa !14
  call void @llvm.lifetime.end.p0(i64 4, ptr %7) #4
  ret i32 %65
}

; Function Attrs: nounwind uwtable
define i32 @lv_fs_seek(ptr noundef %0, i32 noundef %1, i32 noundef %2) #0 {
  %4 = alloca i32, align 4
  %5 = alloca ptr, align 8
  %6 = alloca i32, align 4
  %7 = alloca i32, align 4
  %8 = alloca i32, align 4
  store ptr %0, ptr %5, align 8, !tbaa !6
  store i32 %1, ptr %6, align 4, !tbaa !14
  store i32 %2, ptr %7, align 4, !tbaa !14
  %9 = load ptr, ptr %5, align 8, !tbaa !6
  %10 = getelementptr inbounds nuw %struct.lv_fs_file_t, ptr %9, i32 0, i32 1
  %11 = load ptr, ptr %10, align 8, !tbaa !18
  %12 = icmp eq ptr %11, null
  br i1 %12, label %13, label %14

13:                                               ; preds = %3
  store i32 11, ptr %4, align 4
  br label %75

14:                                               ; preds = %3
  %15 = load ptr, ptr %5, align 8, !tbaa !6
  %16 = getelementptr inbounds nuw %struct.lv_fs_file_t, ptr %15, i32 0, i32 1
  %17 = load ptr, ptr %16, align 8, !tbaa !18
  %18 = getelementptr inbounds nuw %struct._lv_fs_drv_t, ptr %17, i32 0, i32 1
  %19 = load i32, ptr %18, align 4, !tbaa !20
  %20 = icmp ne i32 %19, 0
  br i1 %20, label %21, label %37

21:                                               ; preds = %14
  %22 = load ptr, ptr %5, align 8, !tbaa !6
  %23 = getelementptr inbounds nuw %struct.lv_fs_file_t, ptr %22, i32 0, i32 1
  %24 = load ptr, ptr %23, align 8, !tbaa !18
  %25 = getelementptr inbounds nuw %struct._lv_fs_drv_t, ptr %24, i32 0, i32 7
  %26 = load ptr, ptr %25, align 8, !tbaa !34
  %27 = icmp eq ptr %26, null
  br i1 %27, label %35, label %28

28:                                               ; preds = %21
  %29 = load ptr, ptr %5, align 8, !tbaa !6
  %30 = getelementptr inbounds nuw %struct.lv_fs_file_t, ptr %29, i32 0, i32 1
  %31 = load ptr, ptr %30, align 8, !tbaa !18
  %32 = getelementptr inbounds nuw %struct._lv_fs_drv_t, ptr %31, i32 0, i32 8
  %33 = load ptr, ptr %32, align 8, !tbaa !38
  %34 = icmp eq ptr %33, null
  br i1 %34, label %35, label %36

35:                                               ; preds = %28, %21
  store i32 9, ptr %4, align 4
  br label %75

36:                                               ; preds = %28
  br label %46

37:                                               ; preds = %14
  %38 = load ptr, ptr %5, align 8, !tbaa !6
  %39 = getelementptr inbounds nuw %struct.lv_fs_file_t, ptr %38, i32 0, i32 1
  %40 = load ptr, ptr %39, align 8, !tbaa !18
  %41 = getelementptr inbounds nuw %struct._lv_fs_drv_t, ptr %40, i32 0, i32 7
  %42 = load ptr, ptr %41, align 8, !tbaa !34
  %43 = icmp eq ptr %42, null
  br i1 %43, label %44, label %45

44:                                               ; preds = %37
  store i32 9, ptr %4, align 4
  br label %75

45:                                               ; preds = %37
  br label %46

46:                                               ; preds = %45, %36
  call void @llvm.lifetime.start.p0(i64 4, ptr %8) #4
  %47 = load ptr, ptr %5, align 8, !tbaa !6
  %48 = getelementptr inbounds nuw %struct.lv_fs_file_t, ptr %47, i32 0, i32 1
  %49 = load ptr, ptr %48, align 8, !tbaa !18
  %50 = getelementptr inbounds nuw %struct._lv_fs_drv_t, ptr %49, i32 0, i32 1
  %51 = load i32, ptr %50, align 4, !tbaa !20
  %52 = icmp ne i32 %51, 0
  br i1 %52, label %53, label %58

53:                                               ; preds = %46
  %54 = load ptr, ptr %5, align 8, !tbaa !6
  %55 = load i32, ptr %6, align 4, !tbaa !14
  %56 = load i32, ptr %7, align 4, !tbaa !14
  %57 = call i32 @lv_fs_seek_cached(ptr noundef %54, i32 noundef %55, i32 noundef %56)
  store i32 %57, ptr %8, align 4, !tbaa !14
  br label %73

58:                                               ; preds = %46
  %59 = load ptr, ptr %5, align 8, !tbaa !6
  %60 = getelementptr inbounds nuw %struct.lv_fs_file_t, ptr %59, i32 0, i32 1
  %61 = load ptr, ptr %60, align 8, !tbaa !18
  %62 = getelementptr inbounds nuw %struct._lv_fs_drv_t, ptr %61, i32 0, i32 7
  %63 = load ptr, ptr %62, align 8, !tbaa !34
  %64 = load ptr, ptr %5, align 8, !tbaa !6
  %65 = getelementptr inbounds nuw %struct.lv_fs_file_t, ptr %64, i32 0, i32 1
  %66 = load ptr, ptr %65, align 8, !tbaa !18
  %67 = load ptr, ptr %5, align 8, !tbaa !6
  %68 = getelementptr inbounds nuw %struct.lv_fs_file_t, ptr %67, i32 0, i32 0
  %69 = load ptr, ptr %68, align 8, !tbaa !21
  %70 = load i32, ptr %6, align 4, !tbaa !14
  %71 = load i32, ptr %7, align 4, !tbaa !14
  %72 = call i32 %63(ptr noundef %66, ptr noundef %69, i32 noundef %70, i32 noundef %71)
  store i32 %72, ptr %8, align 4, !tbaa !14
  br label %73

73:                                               ; preds = %58, %53
  %74 = load i32, ptr %8, align 4, !tbaa !14
  store i32 %74, ptr %4, align 4
  call void @llvm.lifetime.end.p0(i64 4, ptr %8) #4
  br label %75

75:                                               ; preds = %73, %44, %35, %13
  %76 = load i32, ptr %4, align 4
  ret i32 %76
}