; Function Attrs: nounwind uwtable
define i32 @lv_fs_seek(ptr nocapture noundef readonly %0, i32 noundef %1, i32 noundef %2) local_unnamed_addr #0 {
  %4 = alloca i32, align 4
  %5 = getelementptr inbounds nuw i8, ptr %0, i64 8
  %6 = load ptr, ptr %5, align 8, !tbaa !15
  %7 = icmp eq ptr %6, null
  br i1 %7, label %lv_fs_seek_cached.exit, label %8

8:                                                ; preds = %3
  %9 = getelementptr inbounds nuw i8, ptr %6, i64 4
  %10 = load i32, ptr %9, align 4, !tbaa !17
  %.not = icmp eq i32 %10, 0
  %11 = getelementptr inbounds nuw i8, ptr %6, i64 48
  %12 = load ptr, ptr %11, align 8, !tbaa !31
  %13 = icmp eq ptr %12, null
  br i1 %.not, label %19, label %14

14:                                               ; preds = %8
  br i1 %13, label %lv_fs_seek_cached.exit, label %15

15:                                               ; preds = %14
  %16 = getelementptr inbounds nuw i8, ptr %6, i64 56
  %17 = load ptr, ptr %16, align 8, !tbaa !33
  %18 = icmp eq ptr %17, null
  br i1 %18, label %lv_fs_seek_cached.exit, label %20

19:                                               ; preds = %8
  br i1 %13, label %lv_fs_seek_cached.exit, label %48

20:                                               ; preds = %15
  switch i32 %2, label %lv_fs_seek_cached.exit [
    i32 0, label %21
    i32 1, label %25
    i32 2, label %31
  ]

21:                                               ; preds = %20
  %22 = getelementptr inbounds nuw i8, ptr %0, i64 16
  %23 = load ptr, ptr %22, align 8, !tbaa !19
  %24 = getelementptr inbounds nuw i8, ptr %23, i64 8
  store i32 %1, ptr %24, align 8, !tbaa !25
  br label %lv_fs_seek_cached.exit

25:                                               ; preds = %20
  %26 = getelementptr inbounds nuw i8, ptr %0, i64 16
  %27 = load ptr, ptr %26, align 8, !tbaa !19
  %28 = getelementptr inbounds nuw i8, ptr %27, i64 8
  %29 = load i32, ptr %28, align 8, !tbaa !25
  %30 = add i32 %29, %1
  store i32 %30, ptr %28, align 8, !tbaa !25
  br label %lv_fs_seek_cached.exit

31:                                               ; preds = %20
  %32 = load ptr, ptr %0, align 8, !tbaa !18
  %33 = tail call i32 %12(ptr noundef nonnull %6, ptr noundef %32, i32 noundef %1, i32 noundef 2) #6
  %34 = icmp eq i32 %33, 0
  br i1 %34, label %35, label %lv_fs_seek_cached.exit

35:                                               ; preds = %31
  call void @llvm.lifetime.start.p0(i64 4, ptr nonnull %4) #6
  %36 = load ptr, ptr %5, align 8, !tbaa !15
  %37 = getelementptr inbounds nuw i8, ptr %36, i64 56
  %38 = load ptr, ptr %37, align 8, !tbaa !33
  %39 = load ptr, ptr %0, align 8, !tbaa !18
  %40 = call i32 %38(ptr noundef %36, ptr noundef %39, ptr noundef nonnull %4) #6
  %41 = icmp eq i32 %40, 0
  br i1 %41, label %42, label %47

42:                                               ; preds = %35
  %43 = load i32, ptr %4, align 4, !tbaa !29
  %44 = getelementptr inbounds nuw i8, ptr %0, i64 16
  %45 = load ptr, ptr %44, align 8, !tbaa !19
  %46 = getelementptr inbounds nuw i8, ptr %45, i64 8
  store i32 %43, ptr %46, align 8, !tbaa !25
  br label %47

47:                                               ; preds = %42, %35
  call void @llvm.lifetime.end.p0(i64 4, ptr nonnull %4) #6
  br label %lv_fs_seek_cached.exit

48:                                               ; preds = %19
  %49 = load ptr, ptr %0, align 8, !tbaa !18
  %50 = tail call i32 %12(ptr noundef nonnull %6, ptr noundef %49, i32 noundef %1, i32 noundef %2) #6
  br label %lv_fs_seek_cached.exit

lv_fs_seek_cached.exit:                           ; preds = %47, %31, %25, %21, %20, %48, %19, %14, %15, %3
  %.015 = phi i32 [ 11, %3 ], [ 9, %15 ], [ 9, %14 ], [ 9, %19 ], [ %50, %48 ], [ 0, %20 ], [ %40, %47 ], [ %33, %31 ], [ 0, %25 ], [ 0, %21 ]
  ret i32 %.015
}